; Function Attrs: mustprogress nounwind uwtable
define void @_ZN4base19PersistentSampleMapD2Ev(ptr noundef nonnull align 8 dereferenceable(104) initializes((0, 8)) %0) unnamed_addr #2 align 2 personality ptr @__gxx_personality_v0 {
  store ptr getelementptr inbounds nuw inrange(-16, 88) (i8, ptr @_ZTVN4base19PersistentSampleMapE, i64 16), ptr %0, align 8, !tbaa !3
  %2 = getelementptr inbounds nuw i8, ptr %0, i64 96
  %3 = load ptr, ptr %2, align 8, !tbaa !31
  %.not = icmp eq ptr %3, null
  br i1 %.not, label %5, label %4

4:                                                ; preds = %1
  invoke void @_ZN4base26PersistentSampleMapRecords7ReleaseEPKv(ptr noundef nonnull align 8 dereferenceable(80) %3, ptr noundef nonnull %0)
          to label %5 unwind label %12

5:                                                ; preds = %4, %1
  %6 = getelementptr inbounds nuw i8, ptr %0, i64 40
  %7 = getelementptr inbounds nuw i8, ptr %0, i64 56
  %8 = load ptr, ptr %7, align 8, !tbaa !14
  invoke void @_ZNSt8_Rb_treeIiSt4pairIKiPiESt10_Select1stIS3_ESt4lessIiESaIS3_EE8_M_eraseEPSt13_Rb_tree_nodeIS3_E(ptr noundef nonnull align 8 dereferenceable(48) %6, ptr noundef %8)
          to label %_ZNSt3mapIiPiSt4lessIiESaISt4pairIKiS0_EEED2Ev.exit unwind label %9

9:                                                ; preds = %5
  %10 = landingpad { ptr, i32 }
          catch ptr null
  %11 = extractvalue { ptr, i32 } %10, 0
  tail call void @__clang_call_terminate(ptr %11) #12
  unreachable

_ZNSt3mapIiPiSt4lessIiESaISt4pairIKiS0_EEED2Ev.exit: ; preds = %5
  tail call void @_ZN4base16HistogramSamplesD2Ev(ptr noundef nonnull align 8 dereferenceable(40) %0) #13
  ret void

12:                                               ; preds = %4
  %13 = landingpad { ptr, i32 }
          catch ptr null
  %14 = extractvalue { ptr, i32 } %13, 0
  tail call void @__clang_call_terminate(ptr %14) #12
  unreachable
}